; Function Attrs: nounwind sspstrong uwtable
define internal i64 @nurat_inspect(i64 noundef %0) #0 {
  %2 = tail call i64 @rb_usascii_str_new_static(ptr noundef nonnull @.str.54, i64 noundef 1) #17
  %3 = inttoptr i64 %0 to ptr
  %4 = getelementptr inbounds nuw i8, ptr %3, i64 16
  %5 = load i64, ptr %4, align 8, !tbaa !19
  %6 = tail call i64 @rb_inspect(i64 noundef %5) #17, !callees !42
  %7 = tail call i64 @rb_str_cat(i64 noundef %6, ptr noundef nonnull @.str.17, i64 noundef 1) #17
  %8 = getelementptr inbounds nuw i8, ptr %3, i64 24
  %9 = load i64, ptr %8, align 8, !tbaa !21
  %10 = tail call i64 @rb_inspect(i64 noundef %9) #17, !callees !42
  %11 = tail call i64 @rb_str_concat(i64 noundef %6, i64 noundef %10) #17
  %12 = tail call i64 @rb_str_concat(i64 noundef %2, i64 noundef %6) #17
  %13 = tail call i64 @rb_str_cat(i64 noundef %2, ptr noundef nonnull @.str.55, i64 noundef 1) #17
  ret i64 %2
}